(i__main__
custdetails
p0
(dp1
S'c_ID'
p2
NsS'c_age'
p3
NsS'c_name'
p4
S' '
p5
sS'c_phno'
p6
NsS'c_address'
p7
g5
sb.(i__main__
custdetails
p0
(dp1
S'c_ID'
p2
NsS'c_age'
p3
I27
sS'c_name'
p4
S'Anil'
p5
sS'c_phno'
p6
I258665415
sS'c_address'
p7
S'Nanglio,Delhi'
p8
sb.c__main__
custdetails
p0
.(i__main__
custdetails
p0
(dp1
S'cphno'
p2
I983763734
sS'cname'
p3
S'Diksha'
p4
sS'cage'
p5
I19
sS'caddress'
p6
S'Rohini,delhi'
p7
sS'cID'
p8
I4
sb.